target datalayout = "e-m:e-p270:32:32-p271:32:32-p272:64:64-i64:64-i128:128-f80:128-n8:16:32:64-S128"
target triple = "x86_64-pc-linux-gnu"

%struct.sharkd_export_object_list = type { ptr, ptr, ptr, ptr }
%struct._export_object_list_t = type { ptr, ptr, ptr }

@sharkd_eo_list = internal global ptr null, align 8

; Function Attrs: nounwind null_pointer_is_valid sspstrong uwtable
define internal ptr @sharkd_eo_object_list_get_entry_by_type(ptr noundef %0, ptr noundef %1) #7 {
  %3 = alloca ptr, align 8
  %4 = alloca ptr, align 8
  %5 = alloca ptr, align 8
  %6 = alloca ptr, align 8
  %7 = alloca i32, align 4
  store ptr %0, ptr %4, align 8
  store ptr %1, ptr %5, align 8
  call void @llvm.lifetime.start.p0(i64 8, ptr %6) #21
  %8 = load ptr, ptr %4, align 8
  store ptr %8, ptr %6, align 8
  br label %9

9:                                                ; preds = %22, %2
  %10 = load ptr, ptr %6, align 8
  %11 = icmp ne ptr %10, null
  br i1 %11, label %12, label %26

12:                                               ; preds = %9
  %13 = load ptr, ptr %6, align 8
  %14 = getelementptr inbounds nuw %struct.sharkd_export_object_list, ptr %13, i32 0, i32 1
  %15 = load ptr, ptr %14, align 8
  %16 = load ptr, ptr %5, align 8
  %17 = call i32 @strcmp(ptr noundef %15, ptr noundef %16) #22
  %18 = icmp ne i32 %17, 0
  br i1 %18, label %21, label %19

19:                                               ; preds = %12
  %20 = load ptr, ptr %6, align 8
  store ptr %20, ptr %3, align 8
  store i32 1, ptr %7, align 4
  br label %27

21:                                               ; preds = %12
  br label %22

22:                                               ; preds = %21
  %23 = load ptr, ptr %6, align 8
  %24 = getelementptr inbounds nuw %struct.sharkd_export_object_list, ptr %23, i32 0, i32 0
  %25 = load ptr, ptr %24, align 8
  store ptr %25, ptr %6, align 8
  br label %9, !llvm.loop !67

26:                                               ; preds = %9
  store ptr null, ptr %3, align 8
  store i32 1, ptr %7, align 4
  br label %27

27:                                               ; preds = %26, %19
  call void @llvm.lifetime.end.p0(i64 8, ptr %6) #21
  %28 = load ptr, ptr %3, align 8
  ret ptr %28
}

; Function Attrs: null_pointer_is_valid sspstrong uwtable
define internal ptr @sharkd_session_eo_register_tap_listener(ptr noundef %0, ptr noundef %1, ptr noundef %2, ptr noundef %3, ptr noundef %4, ptr noundef %5) #0 {
  %7 = alloca ptr, align 8
  %8 = alloca ptr, align 8
  %9 = alloca ptr, align 8
  %10 = alloca ptr, align 8
  %11 = alloca ptr, align 8
  %12 = alloca ptr, align 8
  %13 = alloca ptr, align 8
  %14 = alloca ptr, align 8
  %15 = alloca i64, align 8
  %16 = alloca i64, align 8
  %17 = alloca ptr, align 8
  %18 = alloca ptr, align 8
  %19 = alloca i64, align 8
  %20 = alloca i64, align 8
  %21 = alloca ptr, align 8
  %22 = alloca ptr, align 8
  store ptr %0, ptr %7, align 8
  store ptr %1, ptr %8, align 8
  store ptr %2, ptr %9, align 8
  store ptr %3, ptr %10, align 8
  store ptr %4, ptr %11, align 8
  store ptr %5, ptr %12, align 8
  call void @llvm.lifetime.start.p0(i64 8, ptr %13) #21
  call void @llvm.lifetime.start.p0(i64 8, ptr %14) #21
  %23 = load ptr, ptr @sharkd_eo_list, align 8
  %24 = load ptr, ptr %8, align 8
  %25 = call ptr @sharkd_eo_object_list_get_entry_by_type(ptr noundef %23, ptr noundef %24)
  store ptr %25, ptr %14, align 8
  %26 = load ptr, ptr %14, align 8
  %27 = icmp ne ptr %26, null
  br i1 %27, label %28, label %34

28:                                               ; preds = %6
  %29 = load ptr, ptr %14, align 8
  %30 = getelementptr inbounds nuw %struct.sharkd_export_object_list, ptr %29, i32 0, i32 3
  %31 = load ptr, ptr %30, align 8
  call void @g_slist_free_full(ptr noundef %31, ptr noundef @eo_free_entry)
  %32 = load ptr, ptr %14, align 8
  %33 = getelementptr inbounds nuw %struct.sharkd_export_object_list, ptr %32, i32 0, i32 3
  store ptr null, ptr %33, align 8
  br label %80

34:                                               ; preds = %6
  call void @llvm.lifetime.start.p0(i64 8, ptr %15) #21
  store i64 1, ptr %15, align 8
  call void @llvm.lifetime.start.p0(i64 8, ptr %16) #21
  store i64 32, ptr %16, align 8
  call void @llvm.lifetime.start.p0(i64 8, ptr %17) #21
  %35 = load i64, ptr %16, align 8
  %36 = icmp eq i64 %35, 1
  br i1 %36, label %37, label %40

37:                                               ; preds = %34
  %38 = load i64, ptr %15, align 8
  %39 = call noalias ptr @g_malloc(i64 noundef %38) #26
  store ptr %39, ptr %17, align 8
  br label %61

40:                                               ; preds = %34
  %41 = load i64, ptr %15, align 8
  %42 = call i1 @llvm.is.constant.i64(i64 %41)
  br i1 %42, label %43, label %56

43:                                               ; preds = %40
  %44 = load i64, ptr %16, align 8
  %45 = icmp eq i64 %44, 0
  br i1 %45, label %51, label %46

46:                                               ; preds = %43
  %47 = load i64, ptr %15, align 8
  %48 = load i64, ptr %16, align 8
  %49 = udiv i64 -1, %48
  %50 = icmp ule i64 %47, %49
  br i1 %50, label %51, label %56

51:                                               ; preds = %46, %43
  %52 = load i64, ptr %15, align 8
  %53 = load i64, ptr %16, align 8
  %54 = mul i64 %52, %53
  %55 = call noalias ptr @g_malloc(i64 noundef %54) #26
  store ptr %55, ptr %17, align 8
  br label %60

56:                                               ; preds = %46, %40
  %57 = load i64, ptr %15, align 8
  %58 = load i64, ptr %16, align 8
  %59 = call noalias ptr @g_malloc_n(i64 noundef %57, i64 noundef %58) #27
  store ptr %59, ptr %17, align 8
  br label %60

60:                                               ; preds = %56, %51
  br label %61

61:                                               ; preds = %60, %37
  %62 = load ptr, ptr %17, align 8
  store ptr %62, ptr %18, align 8
  call void @llvm.lifetime.end.p0(i64 8, ptr %17) #21
  call void @llvm.lifetime.end.p0(i64 8, ptr %16) #21
  call void @llvm.lifetime.end.p0(i64 8, ptr %15) #21
  %63 = load ptr, ptr %18, align 8
  store ptr %63, ptr %14, align 8
  %64 = load ptr, ptr %8, align 8
  %65 = call noalias ptr @g_strdup(ptr noundef %64)
  %66 = load ptr, ptr %14, align 8
  %67 = getelementptr inbounds nuw %struct.sharkd_export_object_list, ptr %66, i32 0, i32 1
  store ptr %65, ptr %67, align 8
  %68 = load ptr, ptr %7, align 8
  %69 = call i32 @get_eo_proto_id(ptr noundef %68)
  %70 = call ptr @find_protocol_by_id(i32 noundef %69)
  %71 = call ptr @proto_get_protocol_short_name(ptr noundef %70)
  %72 = load ptr, ptr %14, align 8
  %73 = getelementptr inbounds nuw %struct.sharkd_export_object_list, ptr %72, i32 0, i32 2
  store ptr %71, ptr %73, align 8
  %74 = load ptr, ptr %14, align 8
  %75 = getelementptr inbounds nuw %struct.sharkd_export_object_list, ptr %74, i32 0, i32 3
  store ptr null, ptr %75, align 8
  %76 = load ptr, ptr @sharkd_eo_list, align 8
  %77 = load ptr, ptr %14, align 8
  %78 = getelementptr inbounds nuw %struct.sharkd_export_object_list, ptr %77, i32 0, i32 0
  store ptr %76, ptr %78, align 8
  %79 = load ptr, ptr %14, align 8
  store ptr %79, ptr @sharkd_eo_list, align 8
  br label %80

80:                                               ; preds = %61, %28
  call void @llvm.lifetime.start.p0(i64 8, ptr %19) #21
  store i64 1, ptr %19, align 8
  call void @llvm.lifetime.start.p0(i64 8, ptr %20) #21
  store i64 24, ptr %20, align 8
  call void @llvm.lifetime.start.p0(i64 8, ptr %21) #21
  %81 = load i64, ptr %20, align 8
  %82 = icmp eq i64 %81, 1
  br i1 %82, label %83, label %86

83:                                               ; preds = %80
  %84 = load i64, ptr %19, align 8
  %85 = call noalias ptr @g_malloc0(i64 noundef %84) #26
  store ptr %85, ptr %21, align 8
  br label %107

86:                                               ; preds = %80
  %87 = load i64, ptr %19, align 8
  %88 = call i1 @llvm.is.constant.i64(i64 %87)
  br i1 %88, label %89, label %102

89:                                               ; preds = %86
  %90 = load i64, ptr %20, align 8
  %91 = icmp eq i64 %90, 0
  br i1 %91, label %97, label %92

92:                                               ; preds = %89
  %93 = load i64, ptr %19, align 8
  %94 = load i64, ptr %20, align 8
  %95 = udiv i64 -1, %94
  %96 = icmp ule i64 %93, %95
  br i1 %96, label %97, label %102

97:                                               ; preds = %92, %89
  %98 = load i64, ptr %19, align 8
  %99 = load i64, ptr %20, align 8
  %100 = mul i64 %98, %99
  %101 = call noalias ptr @g_malloc0(i64 noundef %100) #26
  store ptr %101, ptr %21, align 8
  br label %106

102:                                              ; preds = %92, %86
  %103 = load i64, ptr %19, align 8
  %104 = load i64, ptr %20, align 8
  %105 = call noalias ptr @g_malloc0_n(i64 noundef %103, i64 noundef %104) #27
  store ptr %105, ptr %21, align 8
  br label %106

106:                                              ; preds = %102, %97
  br label %107

107:                                              ; preds = %106, %83
  %108 = load ptr, ptr %21, align 8
  store ptr %108, ptr %22, align 8
  call void @llvm.lifetime.end.p0(i64 8, ptr %21) #21
  call void @llvm.lifetime.end.p0(i64 8, ptr %20) #21
  call void @llvm.lifetime.end.p0(i64 8, ptr %19) #21
  %109 = load ptr, ptr %22, align 8
  store ptr %109, ptr %13, align 8
  %110 = load ptr, ptr %13, align 8
  %111 = getelementptr inbounds nuw %struct._export_object_list_t, ptr %110, i32 0, i32 0
  store ptr @sharkd_eo_object_list_add_entry, ptr %111, align 8
  %112 = load ptr, ptr %13, align 8
  %113 = getelementptr inbounds nuw %struct._export_object_list_t, ptr %112, i32 0, i32 1
  store ptr @sharkd_eo_object_list_get_entry, ptr %113, align 8
  %114 = load ptr, ptr %14, align 8
  %115 = load ptr, ptr %13, align 8
  %116 = getelementptr inbounds nuw %struct._export_object_list_t, ptr %115, i32 0, i32 2
  store ptr %114, ptr %116, align 8
  %117 = load ptr, ptr %13, align 8
  %118 = load ptr, ptr %11, align 8
  store ptr %117, ptr %118, align 8
  %119 = load ptr, ptr %12, align 8
  store ptr @g_free, ptr %119, align 8
  %120 = load ptr, ptr %7, align 8
  %121 = call ptr @get_eo_tap_listener_name(ptr noundef %120)
  %122 = load ptr, ptr %13, align 8
  %123 = load ptr, ptr %9, align 8
  %124 = load ptr, ptr %7, align 8
  %125 = call ptr @get_eo_packet_func(ptr noundef %124)
  %126 = load ptr, ptr %10, align 8
  %127 = call ptr @register_tap_listener(ptr noundef %121, ptr noundef %122, ptr noundef %123, i32 noundef 0, ptr noundef null, ptr noundef %125, ptr noundef %126, ptr noundef null)
  call void @llvm.lifetime.end.p0(i64 8, ptr %14) #21
  call void @llvm.lifetime.end.p0(i64 8, ptr %13) #21
  ret ptr %127
}