; Function Attrs: null_pointer_is_valid sspstrong uwtable
define internal fastcc ptr @sharkd_session_eo_register_tap_listener(ptr noundef %0, ptr noundef %1, ptr noundef %2, ptr noundef %3, ptr noundef writeonly captures(none) %4, ptr noundef writeonly captures(none) %5) unnamed_addr #0 {
  %7 = load ptr, ptr @sharkd_eo_list, align 8
  %.not9.i = icmp eq ptr %7, null
  br i1 %.not9.i, label %.loopexit, label %.lr.ph.i

.lr.ph.i:                                         ; preds = %6, %11
  %.010.i = phi ptr [ %12, %11 ], [ %7, %6 ]
  %8 = getelementptr inbounds nuw i8, ptr %.010.i, i64 8
  %9 = load ptr, ptr %8, align 8
  %10 = tail call i32 @strcmp(ptr noundef %9, ptr noundef readonly %1) #18
  %.not8.i = icmp eq i32 %10, 0
  br i1 %.not8.i, label %sharkd_eo_object_list_get_entry_by_type.exit, label %11

11:                                               ; preds = %.lr.ph.i
  %12 = load ptr, ptr %.010.i, align 8
  %.not.i = icmp eq ptr %12, null
  br i1 %.not.i, label %.loopexit, label %.lr.ph.i, !llvm.loop !43

sharkd_eo_object_list_get_entry_by_type.exit:     ; preds = %.lr.ph.i
  %13 = getelementptr inbounds nuw i8, ptr %.010.i, i64 24
  %14 = load ptr, ptr %13, align 8
  tail call void @g_slist_free_full(ptr noundef %14, ptr noundef nonnull @eo_free_entry)
  store ptr null, ptr %13, align 8
  br label %24

.loopexit:                                        ; preds = %11, %6
  %15 = tail call noalias dereferenceable_or_null(32) ptr @g_malloc(i64 noundef 32) #23
  %16 = tail call noalias ptr @g_strdup(ptr noundef %1)
  %17 = getelementptr inbounds nuw i8, ptr %15, i64 8
  store ptr %16, ptr %17, align 8
  %18 = tail call i32 @get_eo_proto_id(ptr noundef %0)
  %19 = tail call ptr @find_protocol_by_id(i32 noundef %18)
  %20 = tail call ptr @proto_get_protocol_short_name(ptr noundef %19)
  %21 = getelementptr inbounds nuw i8, ptr %15, i64 16
  store ptr %20, ptr %21, align 8
  %22 = getelementptr inbounds nuw i8, ptr %15, i64 24
  store ptr null, ptr %22, align 8
  %23 = load ptr, ptr @sharkd_eo_list, align 8
  store ptr %23, ptr %15, align 8
  store ptr %15, ptr @sharkd_eo_list, align 8
  br label %24

24:                                               ; preds = %.loopexit, %sharkd_eo_object_list_get_entry_by_type.exit
  %.0 = phi ptr [ %.010.i, %sharkd_eo_object_list_get_entry_by_type.exit ], [ %15, %.loopexit ]
  %25 = tail call noalias dereferenceable_or_null(24) ptr @g_malloc0(i64 noundef 24) #23
  store ptr @sharkd_eo_object_list_add_entry, ptr %25, align 8
  %26 = getelementptr inbounds nuw i8, ptr %25, i64 8
  store ptr @sharkd_eo_object_list_get_entry, ptr %26, align 8
  %27 = getelementptr inbounds nuw i8, ptr %25, i64 16
  store ptr %.0, ptr %27, align 8
  store ptr %25, ptr %4, align 8
  store ptr @g_free, ptr %5, align 8
  %28 = tail call ptr @get_eo_tap_listener_name(ptr noundef %0)
  %29 = tail call ptr @get_eo_packet_func(ptr noundef %0)
  %30 = tail call ptr @register_tap_listener(ptr noundef %28, ptr noundef %25, ptr noundef %2, i32 noundef 0, ptr noundef null, ptr noundef %29, ptr noundef %3, ptr noundef null)
  ret ptr %30
}